target datalayout = "e-m:e-p270:32:32-p271:32:32-p272:64:64-i64:64-i128:128-f80:128-n8:16:32:64-S128"
target triple = "x86_64-pc-linux-gnu"

%struct.FormData_pg_amop = type { i32, i32, i32, i32, i16, i8, i32, i32, i32 }
%struct.HeapTupleData = type { i32, %struct.ItemPointerData, i32, ptr }
%struct.ItemPointerData = type { %struct.BlockIdData, i16 }
%struct.BlockIdData = type { i16, i16 }
%struct.HeapTupleHeaderData = type { %union.anon, %struct.ItemPointerData, i16, i16, i8, [0 x i8] }
%union.anon = type { %struct.HeapTupleFields }
%struct.HeapTupleFields = type { i32, i32, %union.anon.0 }
%union.anon.0 = type { i32 }

@.str = private unnamed_addr constant [43 x i8] c"operator %u is not a member of opfamily %u\00", align 1
@.str.1 = private unnamed_addr constant [12 x i8] c"lsyscache.c\00", align 1
@__func__.get_op_opfamily_properties = private unnamed_addr constant [27 x i8] c"get_op_opfamily_properties\00", align 1

; Function Attrs: inlinehint nounwind uwtable
define internal ptr @GETSTRUCT(ptr noundef %0) #2 {
  %2 = alloca ptr, align 8
  store ptr %0, ptr %2, align 8
  %3 = load ptr, ptr %2, align 8
  %4 = getelementptr inbounds nuw %struct.HeapTupleData, ptr %3, i32 0, i32 3
  %5 = load ptr, ptr %4, align 8
  %6 = load ptr, ptr %2, align 8
  %7 = getelementptr inbounds nuw %struct.HeapTupleData, ptr %6, i32 0, i32 3
  %8 = load ptr, ptr %7, align 8
  %9 = getelementptr inbounds nuw %struct.HeapTupleHeaderData, ptr %8, i32 0, i32 4
  %10 = load i8, ptr %9, align 2
  %11 = zext i8 %10 to i32
  %12 = sext i32 %11 to i64
  %13 = getelementptr inbounds i8, ptr %5, i64 %12
  ret ptr %13
}

; Function Attrs: inlinehint nounwind uwtable
define internal i64 @CharGetDatum(i8 noundef signext %0) #2 {
  %2 = alloca i8, align 1
  store i8 %0, ptr %2, align 1
  %3 = load i8, ptr %2, align 1
  %4 = sext i8 %3 to i64
  ret i64 %4
}

; Function Attrs: inlinehint nounwind uwtable
define internal i64 @ObjectIdGetDatum(i32 noundef %0) #2 {
  %2 = alloca i32, align 4
  store i32 %0, ptr %2, align 4
  %3 = load i32, ptr %2, align 4
  %4 = zext i32 %3 to i64
  ret i64 %4
}

; Function Attrs: nounwind uwtable
define dso_local void @get_op_opfamily_properties(i32 noundef %0, i32 noundef %1, i1 noundef zeroext %2, ptr noundef %3, ptr noundef %4, ptr noundef %5) #0 {
  %7 = alloca i32, align 4
  %8 = alloca i32, align 4
  %9 = alloca i8, align 1
  %10 = alloca ptr, align 8
  %11 = alloca ptr, align 8
  %12 = alloca ptr, align 8
  %13 = alloca ptr, align 8
  %14 = alloca ptr, align 8
  store i32 %0, ptr %7, align 4
  store i32 %1, ptr %8, align 4
  %15 = zext i1 %2 to i8
  store i8 %15, ptr %9, align 1
  store ptr %3, ptr %10, align 8
  store ptr %4, ptr %11, align 8
  store ptr %5, ptr %12, align 8
  call void @llvm.lifetime.start.p0(i64 8, ptr %13) #7
  call void @llvm.lifetime.start.p0(i64 8, ptr %14) #7
  %16 = load i32, ptr %7, align 4
  %17 = call i64 @ObjectIdGetDatum(i32 noundef %16)
  %18 = load i8, ptr %9, align 1, !range !4, !noundef !5
  %19 = trunc i8 %18 to i1
  %20 = select i1 %19, i32 111, i32 115
  %21 = trunc i32 %20 to i8
  %22 = call i64 @CharGetDatum(i8 noundef signext %21)
  %23 = load i32, ptr %8, align 4
  %24 = call i64 @ObjectIdGetDatum(i32 noundef %23)
  %25 = call ptr @SearchSysCache3(i32 noundef 3, i64 noundef %17, i64 noundef %22, i64 noundef %24)
  store ptr %25, ptr %13, align 8
  %26 = load ptr, ptr %13, align 8
  %27 = icmp ne ptr %26, null
  br i1 %27, label %41, label %28

28:                                               ; preds = %6
  br label %29

29:                                               ; preds = %28
  br i1 true, label %30, label %32

30:                                               ; preds = %29
  %31 = call zeroext i1 @errstart_cold(i32 noundef 21, ptr noundef null) #8
  br i1 %31, label %34, label %38

32:                                               ; preds = %29
  %33 = call zeroext i1 @errstart(i32 noundef 21, ptr noundef null)
  br i1 %33, label %34, label %38

34:                                               ; preds = %32, %30
  %35 = load i32, ptr %7, align 4
  %36 = load i32, ptr %8, align 4
  %37 = call i32 (ptr, ...) @errmsg_internal(ptr noundef @.str, i32 noundef %35, i32 noundef %36)
  call void @errfinish(ptr noundef @.str.1, i32 noundef 151, ptr noundef @__func__.get_op_opfamily_properties)
  br label %38

38:                                               ; preds = %34, %32, %30
  unreachable

39:                                               ; No predecessors!
  br label %40

40:                                               ; preds = %39
  br label %41

41:                                               ; preds = %40, %6
  %42 = load ptr, ptr %13, align 8
  %43 = call ptr @GETSTRUCT(ptr noundef %42)
  store ptr %43, ptr %14, align 8
  %44 = load ptr, ptr %14, align 8
  %45 = getelementptr inbounds nuw %struct.FormData_pg_amop, ptr %44, i32 0, i32 4
  %46 = load i16, ptr %45, align 4
  %47 = sext i16 %46 to i32
  %48 = load ptr, ptr %10, align 8
  store i32 %47, ptr %48, align 4
  %49 = load ptr, ptr %14, align 8
  %50 = getelementptr inbounds nuw %struct.FormData_pg_amop, ptr %49, i32 0, i32 2
  %51 = load i32, ptr %50, align 4
  %52 = load ptr, ptr %11, align 8
  store i32 %51, ptr %52, align 4
  %53 = load ptr, ptr %14, align 8
  %54 = getelementptr inbounds nuw %struct.FormData_pg_amop, ptr %53, i32 0, i32 3
  %55 = load i32, ptr %54, align 4
  %56 = load ptr, ptr %12, align 8
  store i32 %55, ptr %56, align 4
  %57 = load ptr, ptr %13, align 8
  call void @ReleaseSysCache(ptr noundef %57)
  call void @llvm.lifetime.end.p0(i64 8, ptr %14) #7
  call void @llvm.lifetime.end.p0(i64 8, ptr %13) #7
  ret void
}