; Function Attrs: nounwind uwtable
define dso_local void @get_op_opfamily_properties(i32 noundef %0, i32 noundef %1, i1 noundef zeroext %2, ptr noundef writeonly captures(none) %3, ptr noundef writeonly captures(none) %4, ptr noundef writeonly captures(none) %5) local_unnamed_addr #0 {
  %7 = zext i32 %0 to i64
  %8 = select i1 %2, i64 111, i64 115
  %9 = zext i32 %1 to i64
  %10 = tail call ptr @SearchSysCache3(i32 noundef 3, i64 noundef %7, i64 noundef %8, i64 noundef %9) #8
  %.not = icmp eq ptr %10, null
  br i1 %.not, label %11, label %14

11:                                               ; preds = %6
  %12 = tail call zeroext i1 @errstart_cold(i32 noundef 21, ptr noundef null) #9
  tail call void @llvm.assume(i1 %12)
  %13 = tail call i32 (ptr, ...) @errmsg_internal(ptr noundef nonnull @.str, i32 noundef %0, i32 noundef %1) #8
  tail call void @errfinish(ptr noundef nonnull @.str.1, i32 noundef 151, ptr noundef nonnull @__func__.get_op_opfamily_properties) #8
  unreachable

14:                                               ; preds = %6
  %15 = getelementptr i8, ptr %10, i64 16
  %.val = load ptr, ptr %15, align 8
  %16 = getelementptr inbounds nuw i8, ptr %.val, i64 22
  %17 = load i8, ptr %16, align 2
  %18 = zext i8 %17 to i64
  %19 = getelementptr inbounds nuw i8, ptr %.val, i64 %18
  %20 = getelementptr inbounds nuw i8, ptr %19, i64 16
  %21 = load i16, ptr %20, align 4
  %22 = sext i16 %21 to i32
  store i32 %22, ptr %3, align 4
  %23 = getelementptr inbounds nuw i8, ptr %19, i64 8
  %24 = load i32, ptr %23, align 4
  store i32 %24, ptr %4, align 4
  %25 = getelementptr inbounds nuw i8, ptr %19, i64 12
  %26 = load i32, ptr %25, align 4
  store i32 %26, ptr %5, align 4
  tail call void @ReleaseSysCache(ptr noundef nonnull %10) #8
  ret void
}